target datalayout = "e-m:e-p270:32:32-p271:32:32-p272:64:64-i64:64-i128:128-f80:128-n8:16:32:64-S128"
target triple = "x86_64-pc-linux-gnu"

%struct.expert_field = type { i32, i32 }
%struct._packet_info = type { ptr, ptr, i32, i32, %struct.nstime_t, %struct.nstime_t, %struct.nstime_t, i8, ptr, ptr, ptr, ptr, %struct._address, %struct._address, %struct._address, %struct._address, %struct._address, %struct._address, i32, ptr, i8, [3 x i8], %struct.anon, i32, i32, i32, i32, ptr, i8, ptr, ptr, i16, i16, i32, i32, i16, i32, i32, ptr, ptr, ptr, i8, i8, i16, i16, i16, i32, i16, i16, ptr, ptr, ptr, ptr, ptr, i32, i32 }
%struct.nstime_t = type { i64, i32 }
%struct._address = type { i32, i32, ptr, ptr }
%struct.anon = type { i8, [3 x i8] }

@hf_isis_lsp_area_address_str = internal global i32 0, align 4
@hf_isis_lsp_default = internal global i32 0, align 4
@hf_isis_lsp_default_support = internal global i32 0, align 4
@hf_isis_lsp_delay = internal global i32 0, align 4
@hf_isis_lsp_delay_support = internal global i32 0, align 4
@hf_isis_lsp_expense = internal global i32 0, align 4
@hf_isis_lsp_expense_support = internal global i32 0, align 4
@hf_isis_lsp_error = internal global i32 0, align 4
@hf_isis_lsp_error_support = internal global i32 0, align 4
@ei_isis_lsp_short_clv = internal global %struct.expert_field zeroinitializer, align 4
@ei_isis_lsp_long_clv = internal global %struct.expert_field zeroinitializer, align 4
@ei_isis_lsp_reserved_not_zero = internal global %struct.expert_field zeroinitializer, align 4
@.str.964 = private unnamed_addr constant [37 x i8] c"Short lsp prefix neighbors (%d vs 4)\00", align 1
@.str.965 = private unnamed_addr constant [51 x i8] c"Zero payload space after length in prefix neighbor\00", align 1
@.str.966 = private unnamed_addr constant [55 x i8] c"Integral length of prefix neighbor too long (%d vs %d)\00", align 1
@.str.967 = private unnamed_addr constant [25 x i8] c" (but is required to be)\00", align 1

; Function Attrs: null_pointer_is_valid sspstrong uwtable
define internal void @dissect_metric(ptr noundef %0, ptr noundef %1, ptr noundef %2, i32 noundef %3, i32 noundef %4, i32 noundef %5, i32 noundef %6) #0 {
  %8 = alloca ptr, align 8
  %9 = alloca ptr, align 8
  %10 = alloca ptr, align 8
  %11 = alloca i32, align 4
  %12 = alloca i32, align 4
  %13 = alloca i32, align 4
  %14 = alloca i32, align 4
  %15 = alloca i8, align 1
  %16 = alloca ptr, align 8
  %17 = alloca ptr, align 8
  store ptr %0, ptr %8, align 8
  store ptr %1, ptr %9, align 8
  store ptr %2, ptr %10, align 8
  store i32 %3, ptr %11, align 4
  store i32 %4, ptr %12, align 4
  store i32 %5, ptr %13, align 4
  store i32 %6, ptr %14, align 4
  call void @llvm.lifetime.start.p0(i64 1, ptr %15) #4
  call void @llvm.lifetime.start.p0(i64 8, ptr %16) #4
  call void @llvm.lifetime.start.p0(i64 8, ptr %17) #4
  %18 = load ptr, ptr %8, align 8
  %19 = load i32, ptr %11, align 4
  %20 = call zeroext i8 @tvb_get_uint8(ptr noundef %18, i32 noundef %19)
  store i8 %20, ptr %15, align 1
  %21 = load ptr, ptr %10, align 8
  %22 = load i32, ptr %13, align 4
  %23 = load ptr, ptr %8, align 8
  %24 = load i32, ptr %11, align 4
  %25 = load i8, ptr %15, align 1
  %26 = zext i8 %25 to i64
  %27 = call ptr @proto_tree_add_boolean(ptr noundef %21, i32 noundef %22, ptr noundef %23, i32 noundef %24, i32 noundef 1, i64 noundef %26)
  store ptr %27, ptr %17, align 8
  %28 = load ptr, ptr %10, align 8
  %29 = load i32, ptr %12, align 4
  %30 = load ptr, ptr %8, align 8
  %31 = load i32, ptr %11, align 4
  %32 = load i8, ptr %15, align 1
  %33 = zext i8 %32 to i32
  %34 = call ptr @proto_tree_add_uint(ptr noundef %28, i32 noundef %29, ptr noundef %30, i32 noundef %31, i32 noundef 1, i32 noundef %33)
  store ptr %34, ptr %16, align 8
  %35 = load i8, ptr %15, align 1
  %36 = zext i8 %35 to i32
  %37 = and i32 %36, 128
  %38 = icmp ne i32 %37, 0
  br i1 %38, label %39, label %44

39:                                               ; preds = %7
  %40 = load i32, ptr %14, align 4
  %41 = icmp ne i32 %40, 0
  br i1 %41, label %42, label %44

42:                                               ; preds = %39
  %43 = load ptr, ptr %17, align 8
  call void (ptr, ptr, ...) @proto_item_append_text(ptr noundef %43, ptr noundef @.str.967)
  br label %44

44:                                               ; preds = %42, %39, %7
  %45 = load i8, ptr %15, align 1
  %46 = zext i8 %45 to i32
  %47 = and i32 %46, 64
  %48 = icmp ne i32 %47, 0
  br i1 %48, label %49, label %53

49:                                               ; preds = %44
  %50 = load ptr, ptr %9, align 8
  %51 = load ptr, ptr %16, align 8
  %52 = call ptr @expert_add_info(ptr noundef %50, ptr noundef %51, ptr noundef @ei_isis_lsp_reserved_not_zero)
  br label %53

53:                                               ; preds = %49, %44
  call void @llvm.lifetime.end.p0(i64 8, ptr %17) #4
  call void @llvm.lifetime.end.p0(i64 8, ptr %16) #4
  call void @llvm.lifetime.end.p0(i64 1, ptr %15) #4
  ret void
}

; Function Attrs: null_pointer_is_valid sspstrong uwtable
define internal void @dissect_lsp_prefix_neighbors_clv(ptr noundef %0, ptr noundef %1, ptr noundef %2, i32 noundef %3, ptr noundef %4, i32 noundef %5) #0 {
  %7 = alloca ptr, align 8
  %8 = alloca ptr, align 8
  %9 = alloca ptr, align 8
  %10 = alloca i32, align 4
  %11 = alloca ptr, align 8
  %12 = alloca i32, align 4
  %13 = alloca ptr, align 8
  %14 = alloca i32, align 4
  %15 = alloca i32, align 4
  store ptr %0, ptr %7, align 8
  store ptr %1, ptr %8, align 8
  store ptr %2, ptr %9, align 8
  store i32 %3, ptr %10, align 4
  store ptr %4, ptr %11, align 8
  store i32 %5, ptr %12, align 4
  call void @llvm.lifetime.start.p0(i64 8, ptr %13) #4
  call void @llvm.lifetime.start.p0(i64 4, ptr %14) #4
  %16 = load i32, ptr %12, align 4
  %17 = icmp slt i32 %16, 4
  br i1 %17, label %18, label %25

18:                                               ; preds = %6
  %19 = load ptr, ptr %9, align 8
  %20 = load ptr, ptr %8, align 8
  %21 = load ptr, ptr %7, align 8
  %22 = load i32, ptr %10, align 4
  %23 = load i32, ptr %12, align 4
  %24 = call ptr (ptr, ptr, ptr, ptr, i32, i32, ptr, ...) @proto_tree_add_expert_format(ptr noundef %19, ptr noundef %20, ptr noundef @ei_isis_lsp_short_clv, ptr noundef %21, i32 noundef %22, i32 noundef -1, ptr noundef @.str.964, i32 noundef %23)
  store i32 1, ptr %15, align 4
  br label %120

25:                                               ; preds = %6
  %26 = load ptr, ptr %9, align 8
  %27 = icmp ne ptr %26, null
  br i1 %27, label %28, label %56

28:                                               ; preds = %25
  %29 = load ptr, ptr %7, align 8
  %30 = load ptr, ptr %8, align 8
  %31 = load ptr, ptr %9, align 8
  %32 = load i32, ptr %10, align 4
  %33 = load i32, ptr @hf_isis_lsp_default, align 4
  %34 = load i32, ptr @hf_isis_lsp_default_support, align 4
  call void @dissect_metric(ptr noundef %29, ptr noundef %30, ptr noundef %31, i32 noundef %32, i32 noundef %33, i32 noundef %34, i32 noundef 1)
  %35 = load ptr, ptr %7, align 8
  %36 = load ptr, ptr %8, align 8
  %37 = load ptr, ptr %9, align 8
  %38 = load i32, ptr %10, align 4
  %39 = add i32 %38, 1
  %40 = load i32, ptr @hf_isis_lsp_delay, align 4
  %41 = load i32, ptr @hf_isis_lsp_delay_support, align 4
  call void @dissect_metric(ptr noundef %35, ptr noundef %36, ptr noundef %37, i32 noundef %39, i32 noundef %40, i32 noundef %41, i32 noundef 0)
  %42 = load ptr, ptr %7, align 8
  %43 = load ptr, ptr %8, align 8
  %44 = load ptr, ptr %9, align 8
  %45 = load i32, ptr %10, align 4
  %46 = add i32 %45, 2
  %47 = load i32, ptr @hf_isis_lsp_expense, align 4
  %48 = load i32, ptr @hf_isis_lsp_expense_support, align 4
  call void @dissect_metric(ptr noundef %42, ptr noundef %43, ptr noundef %44, i32 noundef %46, i32 noundef %47, i32 noundef %48, i32 noundef 0)
  %49 = load ptr, ptr %7, align 8
  %50 = load ptr, ptr %8, align 8
  %51 = load ptr, ptr %9, align 8
  %52 = load i32, ptr %10, align 4
  %53 = add i32 %52, 3
  %54 = load i32, ptr @hf_isis_lsp_error, align 4
  %55 = load i32, ptr @hf_isis_lsp_error_support, align 4
  call void @dissect_metric(ptr noundef %49, ptr noundef %50, ptr noundef %51, i32 noundef %53, i32 noundef %54, i32 noundef %55, i32 noundef 0)
  br label %56

56:                                               ; preds = %28, %25
  %57 = load i32, ptr %10, align 4
  %58 = add i32 %57, 4
  store i32 %58, ptr %10, align 4
  %59 = load i32, ptr %12, align 4
  %60 = sub i32 %59, 4
  store i32 %60, ptr %12, align 4
  br label %61

61:                                               ; preds = %93, %56
  %62 = load i32, ptr %12, align 4
  %63 = icmp sgt i32 %62, 0
  br i1 %63, label %64, label %119

64:                                               ; preds = %61
  %65 = load ptr, ptr %7, align 8
  %66 = load i32, ptr %10, align 4
  %67 = call zeroext i8 @tvb_get_uint8(ptr noundef %65, i32 noundef %66)
  %68 = zext i8 %67 to i32
  store i32 %68, ptr %14, align 4
  %69 = load i32, ptr %12, align 4
  %70 = add i32 %69, -1
  store i32 %70, ptr %12, align 4
  %71 = load i32, ptr %12, align 4
  %72 = icmp sle i32 %71, 0
  br i1 %72, label %73, label %79

73:                                               ; preds = %64
  %74 = load ptr, ptr %9, align 8
  %75 = load ptr, ptr %8, align 8
  %76 = load ptr, ptr %7, align 8
  %77 = load i32, ptr %10, align 4
  %78 = call ptr (ptr, ptr, ptr, ptr, i32, i32, ptr, ...) @proto_tree_add_expert_format(ptr noundef %74, ptr noundef %75, ptr noundef @ei_isis_lsp_short_clv, ptr noundef %76, i32 noundef %77, i32 noundef -1, ptr noundef @.str.965)
  store i32 1, ptr %15, align 4
  br label %120

79:                                               ; preds = %64
  %80 = load i32, ptr %14, align 4
  %81 = load i32, ptr %12, align 4
  %82 = mul i32 %81, 2
  %83 = icmp sgt i32 %80, %82
  br i1 %83, label %84, label %93

84:                                               ; preds = %79
  %85 = load ptr, ptr %9, align 8
  %86 = load ptr, ptr %8, align 8
  %87 = load ptr, ptr %7, align 8
  %88 = load i32, ptr %10, align 4
  %89 = load i32, ptr %14, align 4
  %90 = load i32, ptr %12, align 4
  %91 = mul i32 %90, 2
  %92 = call ptr (ptr, ptr, ptr, ptr, i32, i32, ptr, ...) @proto_tree_add_expert_format(ptr noundef %85, ptr noundef %86, ptr noundef @ei_isis_lsp_long_clv, ptr noundef %87, i32 noundef %88, i32 noundef -1, ptr noundef @.str.966, i32 noundef %89, i32 noundef %91)
  store i32 1, ptr %15, align 4
  br label %120

93:                                               ; preds = %79
  %94 = load ptr, ptr %8, align 8
  %95 = getelementptr inbounds nuw %struct._packet_info, ptr %94, i32 0, i32 51
  %96 = load ptr, ptr %95, align 8
  %97 = load ptr, ptr %7, align 8
  %98 = load i32, ptr %10, align 4
  %99 = add i32 %98, 1
  %100 = load i32, ptr %14, align 4
  %101 = call ptr @print_address_prefix(ptr noundef %96, ptr noundef %97, i32 noundef %99, i32 noundef %100)
  store ptr %101, ptr %13, align 8
  %102 = load ptr, ptr %9, align 8
  %103 = load i32, ptr @hf_isis_lsp_area_address_str, align 4
  %104 = load ptr, ptr %7, align 8
  %105 = load i32, ptr %10, align 4
  %106 = load i32, ptr %14, align 4
  %107 = add i32 %106, 1
  %108 = sdiv i32 %107, 2
  %109 = add i32 %108, 1
  %110 = load ptr, ptr %13, align 8
  %111 = call ptr @proto_tree_add_string(ptr noundef %102, i32 noundef %103, ptr noundef %104, i32 noundef %105, i32 noundef %109, ptr noundef %110)
  %112 = load i32, ptr %14, align 4
  %113 = add i32 %112, 1
  %114 = load i32, ptr %10, align 4
  %115 = add i32 %114, %113
  store i32 %115, ptr %10, align 4
  %116 = load i32, ptr %14, align 4
  %117 = load i32, ptr %12, align 4
  %118 = sub i32 %117, %116
  store i32 %118, ptr %12, align 4
  br label %61, !llvm.loop !59

119:                                              ; preds = %61
  store i32 0, ptr %15, align 4
  br label %120

120:                                              ; preds = %119, %84, %73, %18
  call void @llvm.lifetime.end.p0(i64 4, ptr %14) #4
  call void @llvm.lifetime.end.p0(i64 8, ptr %13) #4
  %121 = load i32, ptr %15, align 4
  switch i32 %121, label %123 [
    i32 0, label %122
    i32 1, label %122
  ]

122:                                              ; preds = %120, %120
  ret void

123:                                              ; preds = %120
  unreachable
}