; Function Attrs: null_pointer_is_valid sspstrong uwtable
define internal void @dissect_lsp_prefix_neighbors_clv(ptr noundef %0, ptr noundef %1, ptr noundef %2, i32 noundef %3, ptr readnone captures(none) %4, i32 noundef %5) #0 {
  %7 = icmp slt i32 %5, 4
  br i1 %7, label %8, label %10

8:                                                ; preds = %6
  %9 = tail call ptr (ptr, ptr, ptr, ptr, i32, i32, ptr, ...) @proto_tree_add_expert_format(ptr noundef %2, ptr noundef %1, ptr noundef nonnull @ei_isis_lsp_short_clv, ptr noundef %0, i32 noundef %3, i32 noundef -1, ptr noundef nonnull @.str.964, i32 noundef %5)
  br label %.loopexit

10:                                               ; preds = %6
  %.not = icmp eq ptr %2, null
  br i1 %.not, label %dissect_metric.exit66, label %11

11:                                               ; preds = %10
  %12 = load i32, ptr @hf_isis_lsp_default, align 4
  %13 = load i32, ptr @hf_isis_lsp_default_support, align 4
  %14 = tail call zeroext i8 @tvb_get_uint8(ptr noundef %0, i32 noundef %3)
  %15 = zext i8 %14 to i64
  %16 = tail call ptr @proto_tree_add_boolean(ptr noundef nonnull %2, i32 noundef %13, ptr noundef %0, i32 noundef %3, i32 noundef 1, i64 noundef %15)
  %17 = zext i8 %14 to i32
  %18 = tail call ptr @proto_tree_add_uint(ptr noundef nonnull %2, i32 noundef %12, ptr noundef %0, i32 noundef %3, i32 noundef 1, i32 noundef %17)
  %19 = icmp slt i8 %14, 0
  br i1 %19, label %20, label %21

20:                                               ; preds = %11
  tail call void (ptr, ptr, ...) @proto_item_append_text(ptr noundef %16, ptr noundef nonnull @.str.967)
  br label %21

21:                                               ; preds = %20, %11
  %22 = and i32 %17, 64
  %.not.i = icmp eq i32 %22, 0
  br i1 %.not.i, label %dissect_metric.exit, label %23

23:                                               ; preds = %21
  %24 = tail call ptr @expert_add_info(ptr noundef %1, ptr noundef %18, ptr noundef nonnull @ei_isis_lsp_reserved_not_zero)
  br label %dissect_metric.exit

dissect_metric.exit:                              ; preds = %21, %23
  %25 = add i32 %3, 1
  %26 = load i32, ptr @hf_isis_lsp_delay, align 4
  %27 = load i32, ptr @hf_isis_lsp_delay_support, align 4
  %28 = tail call zeroext i8 @tvb_get_uint8(ptr noundef %0, i32 noundef %25)
  %29 = zext i8 %28 to i64
  %30 = tail call ptr @proto_tree_add_boolean(ptr noundef nonnull %2, i32 noundef %27, ptr noundef %0, i32 noundef %25, i32 noundef 1, i64 noundef %29)
  %31 = zext i8 %28 to i32
  %32 = tail call ptr @proto_tree_add_uint(ptr noundef nonnull %2, i32 noundef %26, ptr noundef %0, i32 noundef %25, i32 noundef 1, i32 noundef %31)
  %33 = and i32 %31, 64
  %.not.i61 = icmp eq i32 %33, 0
  br i1 %.not.i61, label %dissect_metric.exit62, label %34

34:                                               ; preds = %dissect_metric.exit
  %35 = tail call ptr @expert_add_info(ptr noundef %1, ptr noundef %32, ptr noundef nonnull @ei_isis_lsp_reserved_not_zero)
  br label %dissect_metric.exit62

dissect_metric.exit62:                            ; preds = %dissect_metric.exit, %34
  %36 = add i32 %3, 2
  %37 = load i32, ptr @hf_isis_lsp_expense, align 4
  %38 = load i32, ptr @hf_isis_lsp_expense_support, align 4
  %39 = tail call zeroext i8 @tvb_get_uint8(ptr noundef %0, i32 noundef %36)
  %40 = zext i8 %39 to i64
  %41 = tail call ptr @proto_tree_add_boolean(ptr noundef nonnull %2, i32 noundef %38, ptr noundef %0, i32 noundef %36, i32 noundef 1, i64 noundef %40)
  %42 = zext i8 %39 to i32
  %43 = tail call ptr @proto_tree_add_uint(ptr noundef nonnull %2, i32 noundef %37, ptr noundef %0, i32 noundef %36, i32 noundef 1, i32 noundef %42)
  %44 = and i32 %42, 64
  %.not.i63 = icmp eq i32 %44, 0
  br i1 %.not.i63, label %dissect_metric.exit64, label %45

45:                                               ; preds = %dissect_metric.exit62
  %46 = tail call ptr @expert_add_info(ptr noundef %1, ptr noundef %43, ptr noundef nonnull @ei_isis_lsp_reserved_not_zero)
  br label %dissect_metric.exit64

dissect_metric.exit64:                            ; preds = %dissect_metric.exit62, %45
  %47 = add i32 %3, 3
  %48 = load i32, ptr @hf_isis_lsp_error, align 4
  %49 = load i32, ptr @hf_isis_lsp_error_support, align 4
  %50 = tail call zeroext i8 @tvb_get_uint8(ptr noundef %0, i32 noundef %47)
  %51 = zext i8 %50 to i64
  %52 = tail call ptr @proto_tree_add_boolean(ptr noundef nonnull %2, i32 noundef %49, ptr noundef %0, i32 noundef %47, i32 noundef 1, i64 noundef %51)
  %53 = zext i8 %50 to i32
  %54 = tail call ptr @proto_tree_add_uint(ptr noundef nonnull %2, i32 noundef %48, ptr noundef %0, i32 noundef %47, i32 noundef 1, i32 noundef %53)
  %55 = and i32 %53, 64
  %.not.i65 = icmp eq i32 %55, 0
  br i1 %.not.i65, label %dissect_metric.exit66, label %56

56:                                               ; preds = %dissect_metric.exit64
  %57 = tail call ptr @expert_add_info(ptr noundef %1, ptr noundef %54, ptr noundef nonnull @ei_isis_lsp_reserved_not_zero)
  br label %dissect_metric.exit66

dissect_metric.exit66:                            ; preds = %56, %dissect_metric.exit64, %10
  %.not73 = icmp eq i32 %5, 4
  br i1 %.not73, label %.loopexit, label %.lr.ph

.lr.ph:                                           ; preds = %dissect_metric.exit66
  %58 = add nsw i32 %5, -4
  %59 = add i32 %3, 4
  %60 = getelementptr inbounds nuw i8, ptr %1, i64 408
  br label %61

61:                                               ; preds = %.lr.ph, %73
  %.072 = phi i32 [ %59, %.lr.ph ], [ %82, %73 ]
  %.05471 = phi i32 [ %58, %.lr.ph ], [ %83, %73 ]
  %62 = tail call zeroext i8 @tvb_get_uint8(ptr noundef %0, i32 noundef %.072)
  %63 = zext i8 %62 to i32
  %64 = add nsw i32 %.05471, -1
  %65 = icmp eq i32 %.05471, 1
  br i1 %65, label %66, label %68

66:                                               ; preds = %61
  %67 = tail call ptr (ptr, ptr, ptr, ptr, i32, i32, ptr, ...) @proto_tree_add_expert_format(ptr noundef %2, ptr noundef %1, ptr noundef nonnull @ei_isis_lsp_short_clv, ptr noundef %0, i32 noundef %.072, i32 noundef -1, ptr noundef nonnull @.str.965)
  br label %.loopexit

68:                                               ; preds = %61
  %69 = shl nuw i32 %64, 1
  %70 = icmp slt i32 %69, %63
  br i1 %70, label %71, label %73

71:                                               ; preds = %68
  %72 = tail call ptr (ptr, ptr, ptr, ptr, i32, i32, ptr, ...) @proto_tree_add_expert_format(ptr noundef %2, ptr noundef %1, ptr noundef nonnull @ei_isis_lsp_long_clv, ptr noundef %0, i32 noundef %.072, i32 noundef -1, ptr noundef nonnull @.str.966, i32 noundef %63, i32 noundef %69)
  br label %.loopexit

73:                                               ; preds = %68
  %74 = load ptr, ptr %60, align 8
  %75 = add i32 %.072, 1
  %76 = tail call ptr @print_address_prefix(ptr noundef %74, ptr noundef %0, i32 noundef %75, i32 noundef %63)
  %77 = load i32, ptr @hf_isis_lsp_area_address_str, align 4
  %78 = add nuw nsw i32 %63, 1
  %79 = lshr i32 %78, 1
  %80 = add nuw nsw i32 %79, 1
  %81 = tail call ptr @proto_tree_add_string(ptr noundef %2, i32 noundef %77, ptr noundef %0, i32 noundef %.072, i32 noundef %80, ptr noundef %76)
  %82 = add i32 %78, %.072
  %83 = sub nsw i32 %64, %63
  %84 = icmp sgt i32 %83, 0
  br i1 %84, label %61, label %.loopexit, !llvm.loop !56

.loopexit:                                        ; preds = %73, %dissect_metric.exit66, %71, %66, %8
  ret void
}